; Function Attrs: mustprogress nounwind uwtable
define dso_local void @_ZNK4node4quic13SessionTicket7AppData3GetEv(ptr noalias nocapture writeonly sret(%"class.std::optional") align 8 %agg.result, ptr nocapture noundef nonnull readonly align 8 dereferenceable(16) %this) local_unnamed_addr #4 align 2 {
entry:
  %buf = alloca %struct.uv_buf_t, align 8
  %ssl_ = getelementptr inbounds i8, ptr %this, i64 8
  %0 = load ptr, ptr %ssl_, align 8
  %call = tail call ptr @SSL_get_session(ptr noundef %0) #17
  %len = getelementptr inbounds i8, ptr %buf, i64 8
  %call2 = call i32 @SSL_SESSION_get0_ticket_appdata(ptr noundef %call, ptr noundef nonnull %buf, ptr noundef nonnull %len) #17
  %cmp.not = icmp eq i32 %call2, 1
  br i1 %cmp.not, label %if.end, label %return

if.end:                                           ; preds = %entry
  call void @llvm.memcpy.p0.p0.i64(ptr noundef nonnull align 8 dereferenceable(16) %agg.result, ptr noundef nonnull align 8 dereferenceable(16) %buf, i64 16, i1 false)
  br label %return

return:                                           ; preds = %entry, %if.end
  %.sink = phi i8 [ 1, %if.end ], [ 0, %entry ]
  %1 = getelementptr inbounds i8, ptr %agg.result, i64 16
  store i8 %.sink, ptr %1, align 8
  ret void
}